-----BEGIN RSA PRIVATE KEY-----
MIICXQIBAAKBgQDxKe3gy+8wysbPEJuae3ff/Yj9Xd1M1+42KwUT2StsfH5jffD0
ZbP8DqIcVFHF9vAnRHCaZ2bAEtQDZpH6HfnzQXzBJ/yvgyt7iyJmnXSSBCP3Aicu
Sadn0gyblUU/w/5vtqJOhwkUQ7RhzDWRQm3xZ5atD9Qj/3+mLKB4kLnRpQIDAQAB
AoGAZo16/7YZP/lq85DParEId/Lbt0qcGdpVDSncHeWi5p5GLM7YkUVSdWRPoZZl
s7Zfx4L+E1rXQeR/zfZnKyJmMC0WctGJyKPzOcTixeaE7GEhWAoy1Ye1JfI5z8F5
NA+DFeCvMtPNuxjonCk+GQgwGjak+ev6J+oZTlatJ8Chh2ECQQD8bm06yxxzGMn3
V4PE4n8kGDKJo38ogTk1Hw3sgWFmzRuktULyD5+N318coWeMp3rZIZ47r8PoC2e/
c3feMZN9AkEA9JK5YAB5e5Ee8V0W/cQCREZvkf8+yCHXIgO4DJs3ZU/GnpaCjoxk
tj0rA1UzYU9t7JLVTFjh8LJv5sqscmc/SQJAE2DKw9OpyHAjuPgf5nJYvkWZQ5Wo
gkyBPsG2iOxZtNGUCK3diMWIQxTdsU32rAaDWL3K7twMVvjhKwJLNmRp5QJBAMJu
psrIdcujekr965pAqmCm8mnJ1pp6NLKI7FexSd/UBR3sn8w9lo8+n6RdpqQ05jnO
HZ49hxm4cbez5lZo+GkCQQCnR1h16inKOzHt04aeIZJaWCD4OfJJTAF9HiUV2+m+
ZrvqzGa6YckTzqBfq9BOLxcXQAY/v74lQIJjetAUxqTb
-----END RSA PRIVATE KEY-----
Certificate:
    Data:
        Version: 3 (0x2)
        Serial Number: 2 (0x2)
    Signature Algorithm: sha1WithRSAEncryption
        Issuer: C=KR, CN=gilgil
        Validity
            Not Before: Mar  1 00:00:00 2014 GMT
            Not After : Feb 27 00:00:00 2024 GMT
        Subject: C=KR, CN=test.com
        Subject Public Key Info:
            Public Key Algorithm: rsaEncryption
                Public-Key: (1024 bit)
                Modulus:
                    00:f1:29:ed:e0:cb:ef:30:ca:c6:cf:10:9b:9a:7b:
                    77:df:fd:88:fd:5d:dd:4c:d7:ee:36:2b:05:13:d9:
                    2b:6c:7c:7e:63:7d:f0:f4:65:b3:fc:0e:a2:1c:54:
                    51:c5:f6:f0:27:44:70:9a:67:66:c0:12:d4:03:66:
                    91:fa:1d:f9:f3:41:7c:c1:27:fc:af:83:2b:7b:8b:
                    22:66:9d:74:92:04:23:f7:02:27:2e:49:a7:67:d2:
                    0c:9b:95:45:3f:c3:fe:6f:b6:a2:4e:87:09:14:43:
                    b4:61:cc:35:91:42:6d:f1:67:96:ad:0f:d4:23:ff:
                    7f:a6:2c:a0:78:90:b9:d1:a5
                Exponent: 65537 (0x10001)
        X509v3 extensions:
            X509v3 Basic Constraints: 
                CA:FALSE
            Netscape Comment: 
                OpenSSL Generated Certificate
            X509v3 Subject Key Identifier: 
                85:D6:90:B6:70:3D:C0:69:73:C8:9A:F4:05:04:D8:FF:AE:CD:F5:93
            X509v3 Authority Key Identifier: 
                DirName:/C=KR/CN=gilgil
                serial:BC:FE:EF:E9:4A:BC:63:F0

    Signature Algorithm: sha1WithRSAEncryption
         7f:ee:2c:79:f1:1b:a8:43:74:6a:ca:ec:20:f6:32:8e:51:2a:
         f8:8a:f1:6c:c9:3b:59:66:b9:ef:eb:cb:20:df:49:58:d3:bf:
         79:69:00:b4:18:81:1e:a9:49:b1:69:8f:4a:f8:3d:8b:1d:6a:
         79:29:db:2b:cb:33:ab:0c:3b:f4:fc:f0:35:d0:1b:3f:33:32:
         bf:a6:0a:8c:d1:a8:38:b8:70:e7:cb:9f:ca:ad:ef:9d:b5:eb:
         4b:e8:61:f4:62:98:a5:70:ab:bd:41:61:0d:1a:49:3b:55:f6:
         2c:c6:15:67:e2:53:e6:a6:d7:1f:0d:4f:5b:68:35:55:3b:d8:
         2a:96
-----BEGIN CERTIFICATE-----
MIICTjCCAbegAwIBAgIBAjANBgkqhkiG9w0BAQUFADAeMQswCQYDVQQGEwJLUjEP
MA0GA1UEAwwGZ2lsZ2lsMCIYDzIwMTQwMzAxMDAwMDAwWhgPMjAyNDAyMjcwMDAw
MDBaMCAxCzAJBgNVBAYTAktSMREwDwYDVQQDDAh0ZXN0LmNvbTCBnzANBgkqhkiG
9w0BAQEFAAOBjQAwgYkCgYEA8Snt4MvvMMrGzxCbmnt33/2I/V3dTNfuNisFE9kr
bHx+Y33w9GWz/A6iHFRRxfbwJ0RwmmdmwBLUA2aR+h3580F8wSf8r4Mre4siZp10
kgQj9wInLkmnZ9IMm5VFP8P+b7aiTocJFEO0Ycw1kUJt8WeWrQ/UI/9/piygeJC5
0aUCAwEAAaOBlTCBkjAJBgNVHRMEAjAAMCwGCWCGSAGG+EIBDQQfFh1PcGVuU1NM
IEdlbmVyYXRlZCBDZXJ0aWZpY2F0ZTAdBgNVHQ4EFgQUhdaQtnA9wGlzyJr0BQTY
/67N9ZMwOAYDVR0jBDEwL6EipCAwHjELMAkGA1UEBhMCS1IxDzANBgNVBAMMBmdp
bGdpbIIJALz+7+lKvGPwMA0GCSqGSIb3DQEBBQUAA4GBAH/uLHnxG6hDdGrK7CD2
Mo5RKviK8WzJO1lmue/ryyDfSVjTv3lpALQYgR6pSbFpj0r4PYsdankp2yvLM6sM
O/T88DXQGz8zMr+mCozRqDi4cOfLn8qt752160voYfRimKVwq71BYQ0aSTtV9izG
FWfiU+am1x8NT1toNVU72CqW
-----END CERTIFICATE-----
